
Allocating common symbols
Common symbol       size              file

periph_clk_khz      0x4               out/system_k60.o

Memory Configuration

Name             Origin             Length             Attributes
VECTORS          0x0000000000000000 0x0000000000000410 xr
FLASH            0x0000000000000800 0x000000000007f800 xr
SRAM_U           0x000000001fff0000 0x0000000000010000 xrw
SRAM_L           0x0000000020000000 0x0000000000010000 xrw
*default*        0x0000000000000000 0xffffffffffffffff

Linker script and memory map

LOAD out/startup_k60.o
LOAD out/uart.o
LOAD out/system_k60.o
LOAD out/main.o
LOAD /tmp/ccQsMecS.o
START GROUP
LOAD /usr/lib/gcc/arm-none-eabi/4.9.3/armv7e-m/libgcc.a
LOAD /usr/lib/gcc/arm-none-eabi/4.9.3/../../../arm-none-eabi/lib/armv7e-m/libg.a
LOAD /usr/lib/gcc/arm-none-eabi/4.9.3/../../../arm-none-eabi/lib/armv7e-m/libc.a
END GROUP

.vectortable    0x0000000000000000      0x410
                0x0000000000000000                __vector_table = .
                0x0000000000000000                . = ALIGN (0x4)
 *(.vectors)
 .vectors       0x0000000000000000      0x410 out/startup_k60.o
                0x0000000000000000                g_pfnVectors
                0x0000000000000410                . = ALIGN (0x4)

.text           0x0000000000000800      0x464
                0x0000000000000800                . = ALIGN (0x4)
 *(.text)
 .text          0x0000000000000800       0xe0 out/startup_k60.o
                0x0000000000000800                CAN0_Rx_Warning_IRQHandler
                0x0000000000000800                I2C0_IRQHandler
                0x0000000000000800                CAN1_ORed_Message_buffer_IRQHandler
                0x0000000000000800                UART3_RX_TX_IRQHandler
                0x0000000000000800                UART0_RX_TX_IRQHandler
                0x0000000000000800                I2C1_IRQHandler
                0x0000000000000800                DMA2_IRQHandler
                0x0000000000000800                ENET_Error_IRQHandler
                0x0000000000000800                CAN0_Tx_Warning_IRQHandler
                0x0000000000000800                PIT0_IRQHandler
                0x0000000000000800                CAN0_ORed_Message_buffer_IRQHandler
                0x0000000000000800                Watchdog_IRQHandler
                0x0000000000000800                CMP2_IRQHandler
                0x0000000000000800                I2S0_IRQHandler
                0x0000000000000800                TSI0_IRQHandler
                0x0000000000000800                ENET_Receive_IRQHandler
                0x0000000000000800                ENET_1588_Timer_IRQHandler
                0x0000000000000800                CAN1_Error_IRQHandler
                0x0000000000000800                UART2_RX_TX_IRQHandler
                0x0000000000000800                ADC0_IRQHandler
                0x0000000000000800                CMT_IRQHandler
                0x0000000000000800                UART4_RX_TX_IRQHandler
                0x0000000000000800                SPI1_IRQHandler
                0x0000000000000800                DMA9_IRQHandler
                0x0000000000000800                DMA14_IRQHandler
                0x0000000000000800                CMP1_IRQHandler
                0x0000000000000800                PORTD_IRQHandler
                0x0000000000000800                PORTB_IRQHandler
                0x0000000000000800                UART4_ERR_IRQHandler
                0x0000000000000800                ADC1_IRQHandler
                0x0000000000000800                PIT2_IRQHandler
                0x0000000000000800                LPTimer_IRQHandler
                0x0000000000000800                DMA5_IRQHandler
                0x0000000000000800                RTC_IRQHandler
                0x0000000000000800                PDB0_IRQHandler
                0x0000000000000800                CAN1_Bus_Off_IRQHandler
                0x0000000000000800                FTM1_IRQHandler
                0x0000000000000800                UART5_RX_TX_IRQHandler
                0x0000000000000800                UART3_ERR_IRQHandler
                0x0000000000000800                PIT3_IRQHandler
                0x0000000000000800                SDHC_IRQHandler
                0x0000000000000800                MCG_IRQHandler
                0x0000000000000800                UART2_ERR_IRQHandler
                0x0000000000000800                DMA11_IRQHandler
                0x0000000000000800                UART5_ERR_IRQHandler
                0x0000000000000800                Read_Collision_IRQHandler
                0x0000000000000800                Default_Handler
                0x0000000000000800                DMA7_IRQHandler
                0x0000000000000800                ENET_Transmit_IRQHandler
                0x0000000000000800                USB_IRQHandler
                0x0000000000000800                CAN1_Tx_Warning_IRQHandler
                0x0000000000000800                USB0_IRQHandler
                0x0000000000000800                LLW_IRQHandler
                0x0000000000000800                SPI2_IRQHandler
                0x0000000000000800                CAN1_Rx_Warning_IRQHandler
                0x0000000000000800                CAN1_Wake_Up_IRQHandler
                0x0000000000000800                DMA13_IRQHandler
                0x0000000000000800                DMA3_IRQHandler
                0x0000000000000800                RNG_IRQHandler
                0x0000000000000800                DMA0_IRQHandler
                0x0000000000000800                DMA15_IRQHandler
                0x0000000000000800                DAC0_IRQHandler
                0x0000000000000800                Software_IRQHandler
                0x0000000000000800                CAN0_Error_IRQHandler
                0x0000000000000800                DMA4_IRQHandler
                0x0000000000000800                PIT1_IRQHandler
                0x0000000000000800                UART0_ERR_IRQHandler
                0x0000000000000800                DMA_Error_IRQHandler
                0x0000000000000800                LVD_LVW_IRQHandler
                0x0000000000000800                SPI0_IRQHandler
                0x0000000000000800                FTM0_IRQHandler
                0x0000000000000800                PORTA_IRQHandler
                0x0000000000000800                DAC1_IRQHandler
                0x0000000000000800                MCM_IRQHandler
                0x0000000000000800                DMA12_IRQHandler
                0x0000000000000800                FTFL_IRQHandler
                0x0000000000000800                CAN0_Bus_Off_IRQHandler
                0x0000000000000800                PORTE_IRQHandler
                0x0000000000000800                FTM2_IRQHandler
                0x0000000000000800                DMA8_IRQHandler
                0x0000000000000800                DMA10_IRQHandler
                0x0000000000000800                CAN0_Wake_Up_IRQHandler
                0x0000000000000800                UART1_ERR_IRQHandler
                0x0000000000000800                UART1_RX_TX_IRQHandler
                0x0000000000000800                CMP0_IRQHandler
                0x0000000000000800                PORTC_IRQHandler
                0x0000000000000800                DMA6_IRQHandler
                0x0000000000000800                DMA1_IRQHandler
                0x0000000000000804                Reset_Handler
 .text          0x00000000000008e0       0xd0 out/uart.o
                0x00000000000008e0                init_uart
                0x0000000000000934                uart_putchar
                0x0000000000000940                uart_getchar
                0x000000000000094c                data_ready
                0x0000000000000954                uart_read
                0x0000000000000968                uartsend
                0x000000000000097c                puts
                0x00000000000009a0                data_available
 .text          0x00000000000009b0       0xf8 out/system_k60.o
                0x00000000000009b0                SystemInit
 .text          0x0000000000000aa8       0xb0 out/main.o
                0x0000000000000aa8                gpio_init
                0x0000000000000b1c                delay
 .text          0x0000000000000b58       0x94 /tmp/ccQsMecS.o
                0x0000000000000b58                toggle_LEDS
                0x0000000000000b72                toggle_LED1
                0x0000000000000b8e                toggle_LED2
                0x0000000000000baa                toggle_LED3
                0x0000000000000bc6                toggle_LED4
 *(.text*)
 .text.startup  0x0000000000000bec       0x78 out/main.o
                0x0000000000000bec                main
 *(.rodata)
 *(.rodata*)
 *(.glue_7)
 .glue_7        0x0000000000000c64        0x0 linker stubs
 *(.glue_7t)
 .glue_7t       0x0000000000000c64        0x0 linker stubs
 *(.eh_frame)
 *(.init)
 *(.fini)
                0x0000000000000c64                . = ALIGN (0x4)
                0x0000000000000c64                _etext = .

.vfp11_veneer   0x0000000000000c64        0x0
 .vfp11_veneer  0x0000000000000c64        0x0 linker stubs

.v4_bx          0x0000000000000c64        0x0
 .v4_bx         0x0000000000000c64        0x0 linker stubs

.iplt           0x0000000000000c64        0x0
 .iplt          0x0000000000000c64        0x0 out/startup_k60.o

.rel.dyn        0x0000000000000c64        0x0
 .rel.iplt      0x0000000000000c64        0x0 out/startup_k60.o

.ARM.extab
 *(.ARM.extab* .gnu.linkonce.armextab.*)
                0x0000000000000c64                __exidx_start = .

.ARM.exidx
 *(.ARM.exidx* .gnu.linkonce.armexidx.*)
                0x0000000000000c64                __exidx_end = .

.preinit_array  0x0000000000000c64        0x0
                [!provide]                        PROVIDE (__preinit_array_start, .)
 *(.preinit_array*)
                [!provide]                        PROVIDE (__preinit_array_end, .)

.init_array     0x0000000000000c64        0x0
                [!provide]                        PROVIDE (__init_array_start, .)
 *(SORT(.init_array.*))
 *(.init_array*)
                [!provide]                        PROVIDE (__init_array_end, .)

.fini_array     0x0000000000000c64        0x0
                [!provide]                        PROVIDE (__fini_array_start, .)
 *(SORT(.fini_array.*))
 *(.fini_array*)
                [!provide]                        PROVIDE (__fini_array_end, .)
                0x0000000000000c64                __etext = .

.data           0x000000001fff0000       0x30 load address 0x0000000000000c64
                0x000000001fff0000                . = ALIGN (0x4)
                0x000000001fff0000                _sdata = .
 *(.data)
 .data          0x000000001fff0000        0x0 out/startup_k60.o
 .data          0x000000001fff0000        0x0 out/uart.o
 .data          0x000000001fff0000        0x0 out/system_k60.o
 .data          0x000000001fff0000       0x30 out/main.o
                0x000000001fff0000                osci
                0x000000001fff0004                nvic
                0x000000001fff0008                GPIOE
                0x000000001fff000c                GPIOD
                0x000000001fff0010                GPIOC
                0x000000001fff0014                GPIOB
                0x000000001fff0018                GPIOA
                0x000000001fff001c                PE
                0x000000001fff0020                PD
                0x000000001fff0024                PC
                0x000000001fff0028                PB
                0x000000001fff002c                PA
 .data          0x000000001fff0030        0x0 /tmp/ccQsMecS.o
 *(.data*)
                0x000000001fff0030                . = ALIGN (0x4)
                0x000000001fff0030                _edata = .

.igot.plt       0x000000001fff0030        0x0 load address 0x0000000000000c94
 .igot.plt      0x000000001fff0030        0x0 out/startup_k60.o
                0x000000001fff0030                . = ALIGN (0x4)

.bss            0x000000001fff0030        0x4 load address 0x0000000000000c94
                0x000000001fff0030                _sbss = .
 *(.bss)
 .bss           0x000000001fff0030        0x0 out/startup_k60.o
 .bss           0x000000001fff0030        0x0 out/uart.o
 .bss           0x000000001fff0030        0x0 out/system_k60.o
 .bss           0x000000001fff0030        0x0 out/main.o
 .bss           0x000000001fff0030        0x0 /tmp/ccQsMecS.o
 *(.bss*)
 *(COMMON)
 COMMON         0x000000001fff0030        0x4 out/system_k60.o
                0x000000001fff0030                periph_clk_khz
                0x000000001fff0034                . = ALIGN (0x4)
                0x000000001fff0034                _ebss = .

.heap           0x000000001fff0034        0x0
                0x000000001fff0034                __end__ = .
                0x000000001fff0034                end = __end__
 *(.heap*)
                0x000000001fff0034                __HeapLimit = .

.stack_dummy    0x000000001fff0034        0x0
 *(.stack*)
                0x0000000020000000                __StackTop = (ORIGIN (SRAM_U) + LENGTH (SRAM_U))
                0x0000000020000000                __StackLimit = (__StackTop - SIZEOF (.stack_dummy))
                [!provide]                        PROVIDE (__stack, __StackTop)
                0x0000000000000001                ASSERT ((__StackLimit >= __HeapLimit), region RAM overflowed with stack)

.ARM.attributes
                0x0000000000000000       0x31
 *(.ARM.attributes)
 .ARM.attributes
                0x0000000000000000       0x33 out/startup_k60.o
 .ARM.attributes
                0x0000000000000033       0x33 out/uart.o
 .ARM.attributes
                0x0000000000000066       0x33 out/system_k60.o
 .ARM.attributes
                0x0000000000000099       0x33 out/main.o
 .ARM.attributes
                0x00000000000000cc       0x21 /tmp/ccQsMecS.o
OUTPUT(out/k60_demo.elf elf32-littlearm)

.debug_info     0x0000000000000000     0x18b8
 .debug_info    0x0000000000000000      0x10a out/startup_k60.o
 .debug_info    0x000000000000010a      0x4b9 out/uart.o
 .debug_info    0x00000000000005c3      0x4eb out/system_k60.o
 .debug_info    0x0000000000000aae      0xdbb out/main.o
 .debug_info    0x0000000000001869       0x4f /tmp/ccQsMecS.o

.debug_abbrev   0x0000000000000000      0x6bb
 .debug_abbrev  0x0000000000000000       0xd4 out/startup_k60.o
 .debug_abbrev  0x00000000000000d4      0x1e5 out/uart.o
 .debug_abbrev  0x00000000000002b9      0x11f out/system_k60.o
 .debug_abbrev  0x00000000000003d8      0x2cf out/main.o
 .debug_abbrev  0x00000000000006a7       0x14 /tmp/ccQsMecS.o

.debug_loc      0x0000000000000000      0x252
 .debug_loc     0x0000000000000000       0xb1 out/startup_k60.o
 .debug_loc     0x00000000000000b1      0x17b out/uart.o
 .debug_loc     0x000000000000022c       0x13 out/system_k60.o
 .debug_loc     0x000000000000023f       0x13 out/main.o

.debug_aranges  0x0000000000000000       0xa8
 .debug_aranges
                0x0000000000000000       0x20 out/startup_k60.o
 .debug_aranges
                0x0000000000000020       0x20 out/uart.o
 .debug_aranges
                0x0000000000000040       0x20 out/system_k60.o
 .debug_aranges
                0x0000000000000060       0x28 out/main.o
 .debug_aranges
                0x0000000000000088       0x20 /tmp/ccQsMecS.o

.debug_line     0x0000000000000000      0x3cf
 .debug_line    0x0000000000000000       0x6c out/startup_k60.o
 .debug_line    0x000000000000006c       0xe6 out/uart.o
 .debug_line    0x0000000000000152       0xf5 out/system_k60.o
 .debug_line    0x0000000000000247      0x122 out/main.o
 .debug_line    0x0000000000000369       0x66 /tmp/ccQsMecS.o

.debug_str      0x0000000000000000      0x655
 .debug_str     0x0000000000000000      0x124 out/startup_k60.o
                                        0x136 (size before relaxing)
 .debug_str     0x0000000000000124      0x186 out/uart.o
                                        0x288 (size before relaxing)
 .debug_str     0x00000000000002aa      0x167 out/system_k60.o
                                        0x2c5 (size before relaxing)
 .debug_str     0x0000000000000411      0x244 out/main.o
                                        0x543 (size before relaxing)

.comment        0x0000000000000000       0x38
 .comment       0x0000000000000000       0x38 out/startup_k60.o
                                         0x39 (size before relaxing)
 .comment       0x0000000000000038       0x39 out/uart.o
 .comment       0x0000000000000038       0x39 out/system_k60.o
 .comment       0x0000000000000038       0x39 out/main.o

.debug_frame    0x0000000000000000      0x180
 .debug_frame   0x0000000000000000       0x40 out/startup_k60.o
 .debug_frame   0x0000000000000040       0xa8 out/uart.o
 .debug_frame   0x00000000000000e8       0x34 out/system_k60.o
 .debug_frame   0x000000000000011c       0x64 out/main.o

.debug_ranges   0x0000000000000000       0x48
 .debug_ranges  0x0000000000000000       0x18 out/uart.o
 .debug_ranges  0x0000000000000018       0x30 out/main.o
